; Function Attrs: mustprogress nofree norecurse nosync nounwind willreturn memory(argmem: write) uwtable
define dso_local void @_ZN3net10QuicConfig26SetMaxStreamsPerConnectionEmm(ptr nocapture noundef nonnull writeonly align 8 dereferenceable(600) %this, i64 noundef %max_streams, i64 noundef %default_streams) local_unnamed_addr #3 align 2 personality ptr @__gxx_personality_v0 {
entry:
  %conv = trunc i64 %max_streams to i32
  %conv2 = trunc i64 %default_streams to i32
  %max_value_.i = getelementptr inbounds i8, ptr %this, i64 204
  store i32 %conv, ptr %max_value_.i, align 4
  %default_value_.i = getelementptr inbounds i8, ptr %this, i64 208
  store i32 %conv2, ptr %default_value_.i, align 8
  ret void
}